; Function Attrs: nounwind uwtable
define internal fastcc noalias nonnull ptr @_init_l___private_Lean_Meta_Tactic_Simp_BuiltinSimprocs_UInt_0____regBuiltin_UInt64_reduceToNat_declare__308____x40_Lean_Meta_Tactic_Simp_BuiltinSimprocs_UInt___hyg_13360____closed__5() unnamed_addr #0 {
  tail call void @lean_inc_heartbeat() #5
  %1 = tail call noalias ptr @mi_malloc_small(i64 noundef 24) #5
  %2 = icmp eq ptr %1, null
  br i1 %2, label %3, label %lean_alloc_closure.exit

3:                                                ; preds = %0
  tail call void @lean_internal_panic_out_of_memory() #6
  unreachable

lean_alloc_closure.exit:                          ; preds = %0
  %4 = getelementptr inbounds nuw i8, ptr %1, i64 4
  store i32 1, ptr %1, align 4, !tbaa !8
  store i32 -184549352, ptr %4, align 4
  %5 = getelementptr inbounds nuw i8, ptr %1, i64 8
  store ptr @l_UInt64_reduceToNat___boxed, ptr %5, align 8, !tbaa !4
  %6 = getelementptr inbounds nuw i8, ptr %1, i64 16
  store i16 9, ptr %6, align 8, !tbaa !17
  %7 = getelementptr inbounds nuw i8, ptr %1, i64 18
  store i16 0, ptr %7, align 2, !tbaa !17
  ret ptr %1
}